; Function Attrs: mustprogress uwtable
define hidden noundef ptr @_Z19luaT_objtypenamestrP9lua_StatePK10lua_TValue(ptr noundef readonly captures(none) %0, ptr noundef readonly captures(none) %1) local_unnamed_addr #0 {
  %3 = getelementptr inbounds nuw i8, ptr %1, i64 12
  %4 = load i32, ptr %3, align 4, !tbaa !27
  switch i32 %4, label %.thread [
    i32 8, label %5
    i32 2, label %28
  ]

5:                                                ; preds = %2
  %6 = load ptr, ptr %1, align 8, !tbaa !32
  %7 = getelementptr inbounds nuw i8, ptr %6, i64 3
  %8 = load i8, ptr %7, align 1, !tbaa !34
  %.not = icmp eq i8 %8, -127
  br i1 %.not, label %.thread, label %9

9:                                                ; preds = %5
  %10 = getelementptr inbounds nuw i8, ptr %6, i64 8
  %11 = load ptr, ptr %10, align 8, !tbaa !36
  %.not37 = icmp eq ptr %11, null
  br i1 %.not37, label %.thread, label %12

12:                                               ; preds = %9
  %13 = getelementptr inbounds nuw i8, ptr %0, i64 24
  %14 = load ptr, ptr %13, align 8, !tbaa !9
  %15 = getelementptr inbounds nuw i8, ptr %14, i64 3184
  %16 = load ptr, ptr %15, align 8, !tbaa !21
  %17 = tail call noundef ptr @_Z11luaH_getstrP8LuaTableP7TString(ptr noundef nonnull %11, ptr noundef %16)
  %18 = getelementptr inbounds nuw i8, ptr %17, i64 12
  %19 = load i32, ptr %18, align 4, !tbaa !27
  %20 = icmp eq i32 %19, 5
  br i1 %20, label %27, label %21

21:                                               ; preds = %12
  %22 = load ptr, ptr %13, align 8, !tbaa !9
  %23 = getelementptr inbounds nuw i8, ptr %22, i64 2944
  %24 = load i32, ptr %3, align 4, !tbaa !27
  %25 = sext i32 %24 to i64
  %26 = getelementptr inbounds [11 x ptr], ptr %23, i64 0, i64 %25
  br label %27

27:                                               ; preds = %12, %21
  %.0.in = phi ptr [ %26, %21 ], [ %17, %12 ]
  %.0 = load ptr, ptr %.0.in, align 8, !tbaa !32
  br label %58

28:                                               ; preds = %2
  %29 = getelementptr inbounds nuw i8, ptr %1, i64 8
  %30 = load i32, ptr %29, align 8, !tbaa !37
  %31 = icmp ult i32 %30, 128
  br i1 %31, label %32, label %.thread

32:                                               ; preds = %28
  %33 = getelementptr inbounds nuw i8, ptr %0, i64 24
  %34 = load ptr, ptr %33, align 8, !tbaa !9
  %35 = getelementptr inbounds nuw i8, ptr %34, i64 5472
  %36 = zext nneg i32 %30 to i64
  %37 = getelementptr inbounds nuw [128 x ptr], ptr %35, i64 0, i64 %36
  %38 = load ptr, ptr %37, align 8, !tbaa !21
  %.not38 = icmp eq ptr %38, null
  br i1 %.not38, label %.thread, label %58

.thread:                                          ; preds = %2, %32, %28, %5, %9
  %39 = getelementptr inbounds nuw i8, ptr %0, i64 24
  %40 = load ptr, ptr %39, align 8, !tbaa !9
  %41 = getelementptr inbounds nuw i8, ptr %40, i64 2856
  %42 = sext i32 %4 to i64
  %43 = getelementptr inbounds [11 x ptr], ptr %41, i64 0, i64 %42
  %44 = load ptr, ptr %43, align 8, !tbaa !33
  %.not39 = icmp eq ptr %44, null
  br i1 %.not39, label %53, label %45

45:                                               ; preds = %.thread
  %46 = getelementptr inbounds nuw i8, ptr %40, i64 3184
  %47 = load ptr, ptr %46, align 8, !tbaa !21
  %48 = tail call noundef ptr @_Z11luaH_getstrP8LuaTableP7TString(ptr noundef nonnull %44, ptr noundef %47)
  %49 = getelementptr inbounds nuw i8, ptr %48, i64 12
  %50 = load i32, ptr %49, align 4, !tbaa !27
  %.not40 = icmp eq i32 %50, 5
  br i1 %.not40, label %51, label %._crit_edge

._crit_edge:                                      ; preds = %45
  %.pre = load ptr, ptr %39, align 8, !tbaa !9
  %.pre54 = load i32, ptr %3, align 4, !tbaa !27
  %.pre55 = sext i32 %.pre54 to i64
  br label %53

51:                                               ; preds = %45
  %52 = load ptr, ptr %48, align 8, !tbaa !32
  br label %58

53:                                               ; preds = %._crit_edge, %.thread
  %.pre-phi = phi i64 [ %.pre55, %._crit_edge ], [ %42, %.thread ]
  %54 = phi ptr [ %.pre, %._crit_edge ], [ %40, %.thread ]
  %55 = getelementptr inbounds nuw i8, ptr %54, i64 2944
  %56 = getelementptr inbounds [11 x ptr], ptr %55, i64 0, i64 %.pre-phi
  %57 = load ptr, ptr %56, align 8, !tbaa !21
  br label %58

58:                                               ; preds = %51, %32, %53, %27
  %.1 = phi ptr [ %.0, %27 ], [ %52, %51 ], [ %57, %53 ], [ %38, %32 ]
  ret ptr %.1
}